; Function Attrs: mustprogress nofree norecurse nosync nounwind willreturn memory(none) uwtable
define noundef i32 @_ZN4Cube19FaceAdjacentToEdgesEii(i32 noundef %0, i32 noundef %1) local_unnamed_addr #0 align 2 {
  %3 = ashr i32 %0, 2
  %4 = and i32 %0, 2
  %5 = shl i32 %0, 1
  %6 = and i32 %5, 2
  switch i32 %3, label %_ZN4Cube19FacesAdjacentToEdgeEiRiS0_.exit [
    i32 0, label %_ZN4Cube9FaceIndexEiii.exit.i
    i32 1, label %_ZN4Cube9FaceIndexEiii.exit9.i
    i32 2, label %_ZN4Cube9FaceIndexEiii.exit16.i
  ]

_ZN4Cube9FaceIndexEiii.exit.i:                    ; preds = %2
  %7 = icmp eq i32 %6, 0
  %spec.select.i = select i1 %7, i32 2, i32 3
  %8 = icmp eq i32 %4, 0
  %.0.i6.i = select i1 %8, i32 4, i32 5
  br label %_ZN4Cube19FacesAdjacentToEdgeEiRiS0_.exit

_ZN4Cube9FaceIndexEiii.exit9.i:                   ; preds = %2
  %.lobit30.i = lshr exact i32 %6, 1
  %9 = icmp eq i32 %4, 0
  %.0.i12.i = select i1 %9, i32 4, i32 5
  br label %_ZN4Cube19FacesAdjacentToEdgeEiRiS0_.exit

_ZN4Cube9FaceIndexEiii.exit16.i:                  ; preds = %2
  %.lobit.i = lshr exact i32 %6, 1
  %10 = icmp eq i32 %4, 0
  %.0.i18.i = select i1 %10, i32 2, i32 3
  br label %_ZN4Cube19FacesAdjacentToEdgeEiRiS0_.exit

_ZN4Cube19FacesAdjacentToEdgeEiRiS0_.exit:        ; preds = %_ZN4Cube9FaceIndexEiii.exit.i, %_ZN4Cube9FaceIndexEiii.exit9.i, %_ZN4Cube9FaceIndexEiii.exit16.i, %2
  %.128 = phi i32 [ undef, %2 ], [ %.lobit.i, %_ZN4Cube9FaceIndexEiii.exit16.i ], [ %.lobit30.i, %_ZN4Cube9FaceIndexEiii.exit9.i ], [ %spec.select.i, %_ZN4Cube9FaceIndexEiii.exit.i ]
  %.026 = phi i32 [ undef, %2 ], [ %.0.i18.i, %_ZN4Cube9FaceIndexEiii.exit16.i ], [ %.0.i12.i, %_ZN4Cube9FaceIndexEiii.exit9.i ], [ %.0.i6.i, %_ZN4Cube9FaceIndexEiii.exit.i ]
  %11 = ashr i32 %1, 2
  %12 = and i32 %1, 2
  %13 = shl i32 %1, 1
  %14 = and i32 %13, 2
  switch i32 %11, label %_ZN4Cube19FacesAdjacentToEdgeEiRiS0_.exit18 [
    i32 0, label %_ZN4Cube9FaceIndexEiii.exit.i15
    i32 1, label %_ZN4Cube9FaceIndexEiii.exit9.i12
    i32 2, label %_ZN4Cube9FaceIndexEiii.exit16.i7
  ]

_ZN4Cube9FaceIndexEiii.exit.i15:                  ; preds = %_ZN4Cube19FacesAdjacentToEdgeEiRiS0_.exit
  %15 = icmp eq i32 %14, 0
  %spec.select.i16 = select i1 %15, i32 2, i32 3
  %16 = icmp eq i32 %12, 0
  %.0.i6.i17 = select i1 %16, i32 4, i32 5
  br label %_ZN4Cube19FacesAdjacentToEdgeEiRiS0_.exit18

_ZN4Cube9FaceIndexEiii.exit9.i12:                 ; preds = %_ZN4Cube19FacesAdjacentToEdgeEiRiS0_.exit
  %.lobit30.i13 = lshr exact i32 %14, 1
  %17 = icmp eq i32 %12, 0
  %.0.i12.i14 = select i1 %17, i32 4, i32 5
  br label %_ZN4Cube19FacesAdjacentToEdgeEiRiS0_.exit18

_ZN4Cube9FaceIndexEiii.exit16.i7:                 ; preds = %_ZN4Cube19FacesAdjacentToEdgeEiRiS0_.exit
  %.lobit.i8 = lshr exact i32 %14, 1
  %18 = icmp eq i32 %12, 0
  %.0.i18.i9 = select i1 %18, i32 2, i32 3
  br label %_ZN4Cube19FacesAdjacentToEdgeEiRiS0_.exit18

_ZN4Cube19FacesAdjacentToEdgeEiRiS0_.exit18:      ; preds = %_ZN4Cube9FaceIndexEiii.exit.i15, %_ZN4Cube9FaceIndexEiii.exit9.i12, %_ZN4Cube9FaceIndexEiii.exit16.i7, %_ZN4Cube19FacesAdjacentToEdgeEiRiS0_.exit
  %.1 = phi i32 [ undef, %_ZN4Cube19FacesAdjacentToEdgeEiRiS0_.exit ], [ %.lobit.i8, %_ZN4Cube9FaceIndexEiii.exit16.i7 ], [ %.lobit30.i13, %_ZN4Cube9FaceIndexEiii.exit9.i12 ], [ %spec.select.i16, %_ZN4Cube9FaceIndexEiii.exit.i15 ]
  %.024 = phi i32 [ undef, %_ZN4Cube19FacesAdjacentToEdgeEiRiS0_.exit ], [ %.0.i18.i9, %_ZN4Cube9FaceIndexEiii.exit16.i7 ], [ %.0.i12.i14, %_ZN4Cube9FaceIndexEiii.exit9.i12 ], [ %.0.i6.i17, %_ZN4Cube9FaceIndexEiii.exit.i15 ]
  %19 = icmp eq i32 %.128, %.1
  %20 = icmp eq i32 %.128, %.024
  %or.cond29 = or i1 %19, %20
  %21 = icmp eq i32 %.026, %.1
  %22 = icmp eq i32 %.026, %.024
  %or.cond = or i1 %21, %22
  %spec.select = select i1 %or.cond, i32 %.026, i32 -1
  %.0 = select i1 %or.cond29, i32 %.128, i32 %spec.select
  ret i32 %.0
}